target datalayout = "e-m:e-p270:32:32-p271:32:32-p272:64:64-i64:64-i128:128-f80:128-n8:16:32:64-S128"
target triple = "x86_64-pc-linux-gnu"

%union.ListCell = type { ptr }
%struct.CommonTableExpr = type { i32, ptr, ptr, i32, ptr, ptr, ptr, i32, i8, i32, ptr, ptr, ptr, ptr }
%struct.String = type { i32, ptr }
%struct.Expr = type { i32 }
%struct.RowExpr = type { %struct.Expr, ptr, i32, i32, ptr, i32 }
%struct.List = type { i32, i32, i32, ptr, [0 x %union.ListCell] }
%struct.Node = type { i32 }
%struct.ForEachState = type { ptr, i32 }

; Function Attrs: inlinehint nounwind uwtable
define internal ptr @list_nth_cell(ptr noundef %0, i32 noundef %1) #3 {
  %3 = alloca ptr, align 8
  %4 = alloca i32, align 4
  store ptr %0, ptr %3, align 8
  store i32 %1, ptr %4, align 4
  %5 = load ptr, ptr %3, align 8
  %6 = getelementptr inbounds nuw %struct.List, ptr %5, i32 0, i32 3
  %7 = load ptr, ptr %6, align 8
  %8 = load i32, ptr %4, align 4
  %9 = sext i32 %8 to i64
  %10 = getelementptr inbounds %union.ListCell, ptr %7, i64 %9
  ret ptr %10
}

; Function Attrs: inlinehint nounwind uwtable
define internal i32 @list_nth_int(ptr noundef %0, i32 noundef %1) #3 {
  %3 = alloca ptr, align 8
  %4 = alloca i32, align 4
  store ptr %0, ptr %3, align 8
  store i32 %1, ptr %4, align 4
  %5 = load ptr, ptr %3, align 8
  %6 = load i32, ptr %4, align 4
  %7 = call ptr @list_nth_cell(ptr noundef %5, i32 noundef %6)
  %8 = load i32, ptr %7, align 8
  ret i32 %8
}

; Function Attrs: inlinehint nounwind uwtable
define internal i32 @list_nth_oid(ptr noundef %0, i32 noundef %1) #3 {
  %3 = alloca ptr, align 8
  %4 = alloca i32, align 4
  store ptr %0, ptr %3, align 8
  store i32 %1, ptr %4, align 4
  %5 = load ptr, ptr %3, align 8
  %6 = load i32, ptr %4, align 4
  %7 = call ptr @list_nth_cell(ptr noundef %5, i32 noundef %6)
  %8 = load i32, ptr %7, align 8
  ret i32 %8
}

; Function Attrs: inlinehint nounwind uwtable
define internal ptr @list_nth(ptr noundef %0, i32 noundef %1) #3 {
  %3 = alloca ptr, align 8
  %4 = alloca i32, align 4
  store ptr %0, ptr %3, align 8
  store i32 %1, ptr %4, align 4
  %5 = load ptr, ptr %3, align 8
  %6 = load i32, ptr %4, align 4
  %7 = call ptr @list_nth_cell(ptr noundef %5, i32 noundef %6)
  %8 = load ptr, ptr %7, align 8
  ret ptr %8
}

; Function Attrs: inlinehint nounwind uwtable
define internal i32 @list_length(ptr noundef %0) #3 {
  %2 = alloca ptr, align 8
  store ptr %0, ptr %2, align 8
  %3 = load ptr, ptr %2, align 8
  %4 = icmp ne ptr %3, null
  br i1 %4, label %5, label %9

5:                                                ; preds = %1
  %6 = load ptr, ptr %2, align 8
  %7 = getelementptr inbounds nuw %struct.List, ptr %6, i32 0, i32 1
  %8 = load i32, ptr %7, align 4
  br label %10

9:                                                ; preds = %1
  br label %10

10:                                               ; preds = %9, %5
  %11 = phi i32 [ %8, %5 ], [ 0, %9 ]
  ret i32 %11
}

; Function Attrs: inlinehint nounwind uwtable
define internal ptr @newNode(i64 noundef %0, i32 noundef %1) #3 {
  %3 = alloca i64, align 8
  %4 = alloca i32, align 4
  %5 = alloca ptr, align 8
  store i64 %0, ptr %3, align 8
  store i32 %1, ptr %4, align 4
  call void @llvm.lifetime.start.p0(i64 8, ptr %5) #7
  %6 = load i64, ptr %3, align 8
  %7 = call ptr @palloc0(i64 noundef %6)
  store ptr %7, ptr %5, align 8
  %8 = load i32, ptr %4, align 4
  %9 = load ptr, ptr %5, align 8
  %10 = getelementptr inbounds nuw %struct.Node, ptr %9, i32 0, i32 0
  store i32 %8, ptr %10, align 4
  %11 = load ptr, ptr %5, align 8
  call void @llvm.lifetime.end.p0(i64 8, ptr %5) #7
  ret ptr %11
}

; Function Attrs: nounwind uwtable
define internal ptr @make_path_rowexpr(ptr noundef %0, ptr noundef %1) #0 {
  %3 = alloca ptr, align 8
  %4 = alloca ptr, align 8
  %5 = alloca ptr, align 8
  %6 = alloca ptr, align 8
  %7 = alloca %struct.ForEachState, align 8
  %8 = alloca i32, align 4
  %9 = alloca ptr, align 8
  %10 = alloca i32, align 4
  %11 = alloca ptr, align 8
  %12 = alloca ptr, align 8
  store ptr %0, ptr %3, align 8
  store ptr %1, ptr %4, align 8
  call void @llvm.lifetime.start.p0(i64 8, ptr %5) #7
  call void @llvm.lifetime.start.p0(i64 8, ptr %6) #7
  %13 = call ptr @newNode(i64 noundef 40, i32 noundef 36)
  store ptr %13, ptr %5, align 8
  %14 = load ptr, ptr %5, align 8
  %15 = getelementptr inbounds nuw %struct.RowExpr, ptr %14, i32 0, i32 2
  store i32 2249, ptr %15, align 8
  %16 = load ptr, ptr %5, align 8
  %17 = getelementptr inbounds nuw %struct.RowExpr, ptr %16, i32 0, i32 3
  store i32 2, ptr %17, align 4
  %18 = load ptr, ptr %5, align 8
  %19 = getelementptr inbounds nuw %struct.RowExpr, ptr %18, i32 0, i32 5
  store i32 -1, ptr %19, align 8
  call void @llvm.lifetime.start.p0(i64 16, ptr %7) #7
  %20 = getelementptr inbounds nuw %struct.ForEachState, ptr %7, i32 0, i32 0
  %21 = load ptr, ptr %4, align 8
  store ptr %21, ptr %20, align 8
  %22 = getelementptr inbounds nuw %struct.ForEachState, ptr %7, i32 0, i32 1
  store i32 0, ptr %22, align 8
  %23 = getelementptr i8, ptr %7, i64 12
  call void @llvm.memset.p0.i64(ptr align 4 %23, i8 0, i64 4, i1 false)
  br label %24

24:                                               ; preds = %119, %2
  %25 = getelementptr inbounds nuw %struct.ForEachState, ptr %7, i32 0, i32 0
  %26 = load ptr, ptr %25, align 8
  %27 = icmp ne ptr %26, null
  br i1 %27, label %28, label %45

28:                                               ; preds = %24
  %29 = getelementptr inbounds nuw %struct.ForEachState, ptr %7, i32 0, i32 1
  %30 = load i32, ptr %29, align 8
  %31 = getelementptr inbounds nuw %struct.ForEachState, ptr %7, i32 0, i32 0
  %32 = load ptr, ptr %31, align 8
  %33 = getelementptr inbounds nuw %struct.List, ptr %32, i32 0, i32 1
  %34 = load i32, ptr %33, align 4
  %35 = icmp slt i32 %30, %34
  br i1 %35, label %36, label %45

36:                                               ; preds = %28
  %37 = getelementptr inbounds nuw %struct.ForEachState, ptr %7, i32 0, i32 0
  %38 = load ptr, ptr %37, align 8
  %39 = getelementptr inbounds nuw %struct.List, ptr %38, i32 0, i32 3
  %40 = load ptr, ptr %39, align 8
  %41 = getelementptr inbounds nuw %struct.ForEachState, ptr %7, i32 0, i32 1
  %42 = load i32, ptr %41, align 8
  %43 = sext i32 %42 to i64
  %44 = getelementptr inbounds %union.ListCell, ptr %40, i64 %43
  store ptr %44, ptr %6, align 8
  br label %46

45:                                               ; preds = %28, %24
  store ptr null, ptr %6, align 8
  br label %46

46:                                               ; preds = %45, %36
  %47 = phi i32 [ 1, %36 ], [ 0, %45 ]
  %48 = icmp ne i32 %47, 0
  br i1 %48, label %50, label %49

49:                                               ; preds = %46
  store i32 2, ptr %8, align 4
  call void @llvm.lifetime.end.p0(i64 16, ptr %7) #7
  br label %123

50:                                               ; preds = %46
  call void @llvm.lifetime.start.p0(i64 8, ptr %9) #7
  %51 = load ptr, ptr %6, align 8
  %52 = load ptr, ptr %51, align 8
  %53 = getelementptr inbounds nuw %struct.String, ptr %52, i32 0, i32 1
  %54 = load ptr, ptr %53, align 8
  store ptr %54, ptr %9, align 8
  call void @llvm.lifetime.start.p0(i64 4, ptr %10) #7
  store i32 0, ptr %10, align 4
  br label %55

55:                                               ; preds = %114, %50
  %56 = load i32, ptr %10, align 4
  %57 = load ptr, ptr %3, align 8
  %58 = getelementptr inbounds nuw %struct.CommonTableExpr, ptr %57, i32 0, i32 10
  %59 = load ptr, ptr %58, align 8
  %60 = call i32 @list_length(ptr noundef %59)
  %61 = icmp slt i32 %56, %60
  br i1 %61, label %63, label %62

62:                                               ; preds = %55
  store i32 5, ptr %8, align 4
  br label %117

63:                                               ; preds = %55
  call void @llvm.lifetime.start.p0(i64 8, ptr %11) #7
  %64 = load ptr, ptr %3, align 8
  %65 = getelementptr inbounds nuw %struct.CommonTableExpr, ptr %64, i32 0, i32 10
  %66 = load ptr, ptr %65, align 8
  %67 = load i32, ptr %10, align 4
  %68 = call ptr @list_nth(ptr noundef %66, i32 noundef %67)
  %69 = getelementptr inbounds nuw %struct.String, ptr %68, i32 0, i32 1
  %70 = load ptr, ptr %69, align 8
  store ptr %70, ptr %11, align 8
  %71 = load ptr, ptr %9, align 8
  %72 = load ptr, ptr %11, align 8
  %73 = call i32 @strcmp(ptr noundef %71, ptr noundef %72) #8
  %74 = icmp eq i32 %73, 0
  br i1 %74, label %75, label %110

75:                                               ; preds = %63
  call void @llvm.lifetime.start.p0(i64 8, ptr %12) #7
  %76 = load i32, ptr %10, align 4
  %77 = add i32 %76, 1
  %78 = trunc i32 %77 to i16
  %79 = load ptr, ptr %3, align 8
  %80 = getelementptr inbounds nuw %struct.CommonTableExpr, ptr %79, i32 0, i32 11
  %81 = load ptr, ptr %80, align 8
  %82 = load i32, ptr %10, align 4
  %83 = call i32 @list_nth_oid(ptr noundef %81, i32 noundef %82)
  %84 = load ptr, ptr %3, align 8
  %85 = getelementptr inbounds nuw %struct.CommonTableExpr, ptr %84, i32 0, i32 12
  %86 = load ptr, ptr %85, align 8
  %87 = load i32, ptr %10, align 4
  %88 = call i32 @list_nth_int(ptr noundef %86, i32 noundef %87)
  %89 = load ptr, ptr %3, align 8
  %90 = getelementptr inbounds nuw %struct.CommonTableExpr, ptr %89, i32 0, i32 13
  %91 = load ptr, ptr %90, align 8
  %92 = load i32, ptr %10, align 4
  %93 = call i32 @list_nth_oid(ptr noundef %91, i32 noundef %92)
  %94 = call ptr @makeVar(i32 noundef 1, i16 noundef signext %78, i32 noundef %83, i32 noundef %88, i32 noundef %93, i32 noundef 0)
  store ptr %94, ptr %12, align 8
  %95 = load ptr, ptr %5, align 8
  %96 = getelementptr inbounds nuw %struct.RowExpr, ptr %95, i32 0, i32 1
  %97 = load ptr, ptr %96, align 8
  %98 = load ptr, ptr %12, align 8
  %99 = call ptr @lappend(ptr noundef %97, ptr noundef %98)
  %100 = load ptr, ptr %5, align 8
  %101 = getelementptr inbounds nuw %struct.RowExpr, ptr %100, i32 0, i32 1
  store ptr %99, ptr %101, align 8
  %102 = load ptr, ptr %5, align 8
  %103 = getelementptr inbounds nuw %struct.RowExpr, ptr %102, i32 0, i32 4
  %104 = load ptr, ptr %103, align 8
  %105 = load ptr, ptr %9, align 8
  %106 = call ptr @makeString(ptr noundef %105)
  %107 = call ptr @lappend(ptr noundef %104, ptr noundef %106)
  %108 = load ptr, ptr %5, align 8
  %109 = getelementptr inbounds nuw %struct.RowExpr, ptr %108, i32 0, i32 4
  store ptr %107, ptr %109, align 8
  store i32 5, ptr %8, align 4
  call void @llvm.lifetime.end.p0(i64 8, ptr %12) #7
  br label %111

110:                                              ; preds = %63
  store i32 0, ptr %8, align 4
  br label %111

111:                                              ; preds = %110, %75
  call void @llvm.lifetime.end.p0(i64 8, ptr %11) #7
  %112 = load i32, ptr %8, align 4
  switch i32 %112, label %117 [
    i32 0, label %113
  ]

113:                                              ; preds = %111
  br label %114

114:                                              ; preds = %113
  %115 = load i32, ptr %10, align 4
  %116 = add i32 %115, 1
  store i32 %116, ptr %10, align 4
  br label %55, !llvm.loop !10

117:                                              ; preds = %111, %62
  call void @llvm.lifetime.end.p0(i64 4, ptr %10) #7
  br label %118

118:                                              ; preds = %117
  call void @llvm.lifetime.end.p0(i64 8, ptr %9) #7
  br label %119

119:                                              ; preds = %118
  %120 = getelementptr inbounds nuw %struct.ForEachState, ptr %7, i32 0, i32 1
  %121 = load i32, ptr %120, align 8
  %122 = add i32 %121, 1
  store i32 %122, ptr %120, align 8
  br label %24, !llvm.loop !11

123:                                              ; preds = %49
  %124 = load ptr, ptr %5, align 8
  store i32 1, ptr %8, align 4
  call void @llvm.lifetime.end.p0(i64 8, ptr %6) #7
  call void @llvm.lifetime.end.p0(i64 8, ptr %5) #7
  ret ptr %124
}