; Function Attrs: nounwind uwtable
define internal fastcc noundef ptr @make_path_rowexpr(ptr noundef readonly captures(none) %0, ptr noundef readonly captures(address_is_null) %1) unnamed_addr #0 {
  %3 = tail call noundef ptr @palloc0(i64 noundef 40) #5
  store i32 36, ptr %3, align 4
  %4 = getelementptr inbounds nuw i8, ptr %3, i64 16
  store i32 2249, ptr %4, align 8
  %5 = getelementptr inbounds nuw i8, ptr %3, i64 20
  store i32 2, ptr %5, align 4
  %6 = getelementptr inbounds nuw i8, ptr %3, i64 32
  store i32 -1, ptr %6, align 8
  %7 = getelementptr inbounds nuw i8, ptr %1, i64 4
  %.not = icmp eq ptr %1, null
  br i1 %.not, label %._crit_edge, label %.lr.ph48

.lr.ph48:                                         ; preds = %2
  %8 = getelementptr inbounds nuw i8, ptr %1, i64 16
  %9 = getelementptr inbounds nuw i8, ptr %0, i64 72
  %10 = getelementptr inbounds nuw i8, ptr %0, i64 80
  %11 = getelementptr inbounds nuw i8, ptr %0, i64 88
  %12 = getelementptr inbounds nuw i8, ptr %0, i64 96
  %13 = getelementptr inbounds nuw i8, ptr %3, i64 8
  %14 = getelementptr inbounds nuw i8, ptr %3, i64 24
  %15 = load i32, ptr %7, align 4
  %16 = icmp sgt i32 %15, 0
  br i1 %16, label %.lr.ph59, label %._crit_edge

._crit_edge:                                      ; preds = %.loopexit, %.lr.ph48, %2
  ret ptr %3

.lr.ph59:                                         ; preds = %.lr.ph48, %.loopexit
  %indvars.iv5358 = phi i64 [ %indvars.iv.next54, %.loopexit ], [ 0, %.lr.ph48 ]
  %17 = load ptr, ptr %8, align 8
  %18 = getelementptr inbounds nuw %union.ListCell, ptr %17, i64 %indvars.iv5358
  %19 = load ptr, ptr %18, align 8
  %20 = getelementptr inbounds nuw i8, ptr %19, i64 8
  %21 = load ptr, ptr %20, align 8
  %22 = load ptr, ptr %9, align 8
  %.not.i = icmp eq ptr %22, null
  %23 = getelementptr i8, ptr %22, i64 16
  br i1 %.not.i, label %.loopexit, label %.split

.split:                                           ; preds = %.lr.ph59
  %24 = getelementptr inbounds nuw i8, ptr %22, i64 4
  %25 = load i32, ptr %24, align 4
  %26 = icmp sgt i32 %25, 0
  br i1 %26, label %.lr.ph, label %.loopexit

.lr.ph:                                           ; preds = %.split
  %.val = load ptr, ptr %23, align 8
  %wide.trip.count = zext nneg i32 %25 to i64
  br label %27

27:                                               ; preds = %.lr.ph, %.critedge
  %indvars.iv = phi i64 [ 0, %.lr.ph ], [ %indvars.iv.next, %.critedge ]
  %28 = getelementptr inbounds nuw %union.ListCell, ptr %.val, i64 %indvars.iv
  %29 = load ptr, ptr %28, align 8
  %30 = getelementptr inbounds nuw i8, ptr %29, i64 8
  %31 = load ptr, ptr %30, align 8
  %32 = tail call i32 @strcmp(ptr noundef nonnull dereferenceable(1) %21, ptr noundef nonnull dereferenceable(1) %31) #6
  %.not34 = icmp eq i32 %32, 0
  br i1 %.not34, label %.split42, label %.critedge

.split42:                                         ; preds = %27
  %33 = trunc i64 %indvars.iv to i16
  %34 = add i16 %33, 1
  %35 = load ptr, ptr %10, align 8
  %36 = getelementptr i8, ptr %35, i64 16
  %.val36 = load ptr, ptr %36, align 8
  %37 = getelementptr inbounds nuw %union.ListCell, ptr %.val36, i64 %indvars.iv
  %38 = load i32, ptr %37, align 8
  %39 = load ptr, ptr %11, align 8
  %40 = getelementptr i8, ptr %39, i64 16
  %.val37 = load ptr, ptr %40, align 8
  %41 = getelementptr inbounds nuw %union.ListCell, ptr %.val37, i64 %indvars.iv
  %42 = load i32, ptr %41, align 8
  %43 = load ptr, ptr %12, align 8
  %44 = getelementptr i8, ptr %43, i64 16
  %.val35 = load ptr, ptr %44, align 8
  %45 = getelementptr inbounds nuw %union.ListCell, ptr %.val35, i64 %indvars.iv
  %46 = load i32, ptr %45, align 8
  %47 = tail call ptr @makeVar(i32 noundef 1, i16 noundef signext %34, i32 noundef %38, i32 noundef %42, i32 noundef %46, i32 noundef 0) #5
  %48 = load ptr, ptr %13, align 8
  %49 = tail call ptr @lappend(ptr noundef %48, ptr noundef %47) #5
  store ptr %49, ptr %13, align 8
  %50 = load ptr, ptr %14, align 8
  %51 = tail call ptr @makeString(ptr noundef nonnull %21) #5
  %52 = tail call ptr @lappend(ptr noundef %50, ptr noundef %51) #5
  store ptr %52, ptr %14, align 8
  br label %.loopexit

.critedge:                                        ; preds = %27
  %indvars.iv.next = add nuw nsw i64 %indvars.iv, 1
  %exitcond.not = icmp eq i64 %indvars.iv.next, %wide.trip.count
  br i1 %exitcond.not, label %.loopexit, label %27, !llvm.loop !10

.loopexit:                                        ; preds = %.critedge, %.lr.ph59, %.split, %.split42
  %indvars.iv.next54 = add nuw nsw i64 %indvars.iv5358, 1
  %53 = load i32, ptr %7, align 4
  %54 = sext i32 %53 to i64
  %55 = icmp slt i64 %indvars.iv.next54, %54
  br i1 %55, label %.lr.ph59, label %._crit_edge
}